target datalayout = "e-m:e-p270:32:32-p271:32:32-p272:64:64-i64:64-i128:128-f80:128-n8:16:32:64-S128"
target triple = "x86_64-unknown-linux-gnu"

%"class.bv::ackerman" = type { ptr, %class.hashtable, ptr, ptr, i32, i32, i32, i32, %class.svector }
%class.hashtable = type { %class.core_hashtable.base, [4 x i8] }
%class.core_hashtable.base = type <{ ptr, i32, i32, i32 }>
%class.svector = type { %class.vector }
%class.vector = type { ptr }
%class.dll_base = type { ptr, ptr }

; Function Attrs: mustprogress uwtable
define linkonce_odr hidden void @_Z7deallocIN2bv8ackerman2vvEEvPT_(ptr noundef %ptr) #5 comdat {
entry:
  %ptr.addr = alloca ptr, align 8
  store ptr %ptr, ptr %ptr.addr, align 8
  %0 = load ptr, ptr %ptr.addr, align 8
  %cmp = icmp eq ptr %0, null
  br i1 %cmp, label %if.then, label %if.end

if.then:                                          ; preds = %entry
  br label %return

if.end:                                           ; preds = %entry
  %1 = load ptr, ptr %ptr.addr, align 8
  call void @_ZN6memory10deallocateEPv(ptr noundef %1)
  br label %return

return:                                           ; preds = %if.end, %if.then
  ret void
}

; Function Attrs: mustprogress uwtable
define linkonce_odr hidden void @_ZN14core_hashtableI18default_hash_entryIPN2bv8ackerman2vvEENS2_7vv_hashENS2_5vv_eqEE5eraseERKS4_(ptr noundef nonnull align 8 dereferenceable(20) %this, ptr noundef nonnull align 8 dereferenceable(8) %e) #5 comdat align 2 {
entry:
  %this.addr = alloca ptr, align 8
  %e.addr = alloca ptr, align 8
  store ptr %this, ptr %this.addr, align 8
  store ptr %e, ptr %e.addr, align 8
  %this1 = load ptr, ptr %this.addr, align 8
  %0 = load ptr, ptr %e.addr, align 8
  call void @_ZN14core_hashtableI18default_hash_entryIPN2bv8ackerman2vvEENS2_7vv_hashENS2_5vv_eqEE6removeERKS4_(ptr noundef nonnull align 8 dereferenceable(20) %this1, ptr noundef nonnull align 8 dereferenceable(8) %0)
  ret void
}

; Function Attrs: mustprogress nounwind uwtable
define linkonce_odr hidden void @_ZN8dll_baseIN2bv8ackerman2vvEE11remove_fromERPS2_S4_(ptr noundef nonnull align 8 dereferenceable(8) %list, ptr noundef %elem) #4 comdat align 2 {
entry:
  %list.addr = alloca ptr, align 8
  %elem.addr = alloca ptr, align 8
  %next = alloca ptr, align 8
  %prev = alloca ptr, align 8
  store ptr %list, ptr %list.addr, align 8
  store ptr %elem, ptr %elem.addr, align 8
  %0 = load ptr, ptr %list.addr, align 8
  %1 = load ptr, ptr %0, align 8
  %m_next = getelementptr inbounds %class.dll_base, ptr %1, i32 0, i32 0
  %2 = load ptr, ptr %m_next, align 8
  %3 = load ptr, ptr %list.addr, align 8
  %4 = load ptr, ptr %3, align 8
  %cmp = icmp eq ptr %2, %4
  br i1 %cmp, label %if.then, label %if.end

if.then:                                          ; preds = %entry
  %5 = load ptr, ptr %list.addr, align 8
  store ptr null, ptr %5, align 8
  br label %return

if.end:                                           ; preds = %entry
  %6 = load ptr, ptr %list.addr, align 8
  %7 = load ptr, ptr %6, align 8
  %8 = load ptr, ptr %elem.addr, align 8
  %cmp1 = icmp eq ptr %7, %8
  br i1 %cmp1, label %if.then2, label %if.end4

if.then2:                                         ; preds = %if.end
  %9 = load ptr, ptr %elem.addr, align 8
  %m_next3 = getelementptr inbounds %class.dll_base, ptr %9, i32 0, i32 0
  %10 = load ptr, ptr %m_next3, align 8
  %11 = load ptr, ptr %list.addr, align 8
  store ptr %10, ptr %11, align 8
  br label %if.end4

if.end4:                                          ; preds = %if.then2, %if.end
  %12 = load ptr, ptr %elem.addr, align 8
  %m_next5 = getelementptr inbounds %class.dll_base, ptr %12, i32 0, i32 0
  %13 = load ptr, ptr %m_next5, align 8
  store ptr %13, ptr %next, align 8
  %14 = load ptr, ptr %elem.addr, align 8
  %m_prev = getelementptr inbounds %class.dll_base, ptr %14, i32 0, i32 1
  %15 = load ptr, ptr %m_prev, align 8
  store ptr %15, ptr %prev, align 8
  %16 = load ptr, ptr %next, align 8
  %17 = load ptr, ptr %prev, align 8
  %m_next6 = getelementptr inbounds %class.dll_base, ptr %17, i32 0, i32 0
  store ptr %16, ptr %m_next6, align 8
  %18 = load ptr, ptr %prev, align 8
  %19 = load ptr, ptr %next, align 8
  %m_prev7 = getelementptr inbounds %class.dll_base, ptr %19, i32 0, i32 1
  store ptr %18, ptr %m_prev7, align 8
  br label %return

return:                                           ; preds = %if.end4, %if.then
  ret void
}

; Function Attrs: mustprogress uwtable
define hidden void @_ZN2bv8ackerman6removeEPNS0_2vvE(ptr noundef nonnull align 8 dereferenceable(72) %this, ptr noundef %p) #5 align 2 {
entry:
  %this.addr = alloca ptr, align 8
  %p.addr = alloca ptr, align 8
  store ptr %this, ptr %this.addr, align 8
  store ptr %p, ptr %p.addr, align 8
  %this1 = load ptr, ptr %this.addr, align 8
  %m_queue = getelementptr inbounds %"class.bv::ackerman", ptr %this1, i32 0, i32 2
  %0 = load ptr, ptr %p.addr, align 8
  call void @_ZN8dll_baseIN2bv8ackerman2vvEE11remove_fromERPS2_S4_(ptr noundef nonnull align 8 dereferenceable(8) %m_queue, ptr noundef %0)
  %m_table = getelementptr inbounds %"class.bv::ackerman", ptr %this1, i32 0, i32 1
  call void @_ZN14core_hashtableI18default_hash_entryIPN2bv8ackerman2vvEENS2_7vv_hashENS2_5vv_eqEE5eraseERKS4_(ptr noundef nonnull align 8 dereferenceable(20) %m_table, ptr noundef nonnull align 8 dereferenceable(8) %p.addr)
  %1 = load ptr, ptr %p.addr, align 8
  call void @_Z7deallocIN2bv8ackerman2vvEEvPT_(ptr noundef %1)
  ret void
}