; Function Attrs: mustprogress uwtable
define hidden void @_ZN2bv8ackerman6removeEPNS0_2vvE(ptr noundef nonnull align 8 dereferenceable(72) %this, ptr noundef %p) local_unnamed_addr #3 align 2 {
entry:
  %p.addr = alloca ptr, align 8
  store ptr %p, ptr %p.addr, align 8
  %m_queue = getelementptr inbounds i8, ptr %this, i64 32
  %0 = load ptr, ptr %m_queue, align 8
  %1 = load ptr, ptr %0, align 8
  %cmp.i = icmp eq ptr %1, %0
  br i1 %cmp.i, label %if.then.i, label %if.end.i

if.then.i:                                        ; preds = %entry
  store ptr null, ptr %m_queue, align 8
  br label %_ZN8dll_baseIN2bv8ackerman2vvEE11remove_fromERPS2_S4_.exit

if.end.i:                                         ; preds = %entry
  %cmp1.i = icmp eq ptr %0, %p
  %.pre.i = load ptr, ptr %p, align 8
  br i1 %cmp1.i, label %if.then2.i, label %if.end4.i

if.then2.i:                                       ; preds = %if.end.i
  store ptr %.pre.i, ptr %m_queue, align 8
  br label %if.end4.i

if.end4.i:                                        ; preds = %if.then2.i, %if.end.i
  %m_prev.i = getelementptr inbounds i8, ptr %p, i64 8
  %2 = load ptr, ptr %m_prev.i, align 8
  store ptr %.pre.i, ptr %2, align 8
  %m_prev7.i = getelementptr inbounds i8, ptr %.pre.i, i64 8
  store ptr %2, ptr %m_prev7.i, align 8
  br label %_ZN8dll_baseIN2bv8ackerman2vvEE11remove_fromERPS2_S4_.exit

_ZN8dll_baseIN2bv8ackerman2vvEE11remove_fromERPS2_S4_.exit: ; preds = %if.then.i, %if.end4.i
  %m_table = getelementptr inbounds i8, ptr %this, i64 8
  call void @_ZN14core_hashtableI18default_hash_entryIPN2bv8ackerman2vvEENS2_7vv_hashENS2_5vv_eqEE6removeERKS4_(ptr noundef nonnull align 8 dereferenceable(20) %m_table, ptr noundef nonnull align 8 dereferenceable(8) %p.addr)
  %3 = load ptr, ptr %p.addr, align 8
  %cmp.i1 = icmp eq ptr %3, null
  br i1 %cmp.i1, label %_Z7deallocIN2bv8ackerman2vvEEvPT_.exit, label %if.end.i2

if.end.i2:                                        ; preds = %_ZN8dll_baseIN2bv8ackerman2vvEE11remove_fromERPS2_S4_.exit
  call void @_ZN6memory10deallocateEPv(ptr noundef nonnull %3)
  br label %_Z7deallocIN2bv8ackerman2vvEEvPT_.exit

_Z7deallocIN2bv8ackerman2vvEEvPT_.exit:           ; preds = %_ZN8dll_baseIN2bv8ackerman2vvEE11remove_fromERPS2_S4_.exit, %if.end.i2
  ret void
}